-----BEGIN ENCRYPTED PRIVATE KEY-----
MIIC1DBOBgkqhkiG9w0BBQ0wQTApBgkqhkiG9w0BBQwwHAQIkPlLLXgfvOoCAggA
MAwGCCqGSIb3DQIJBQAwFAYIKoZIhvcNAwcECEYieV1XamayBIICgIKjKVY3dLWI
SkLrm9oaWg3wCN2yAW2qHKsCPfdS5N/GJt7Bpdlho9AXt8ZlzZjPJehz/Ep8ze7J
Fw+aC7eSeSphubAN9HVeeZvLeeZ0ZP0vldrAShpTHeWNDBcb1Zrp5RmeTT65CCKK
qP1RgmIQb6Vlz4j6SDvb10uHwLEeDp+kC+hMiLiz079VqCTQ5lDbjuedVg5ZWO1t
40POhH/fNTj1oy6woIu5nEUMag4CYHPXOUCNaoXNylscIlpw3zlGdtExDm4AKMkI
pIpEHZXUrYlwiF3tlEV3WezebISWcJjYc5oOBH0boMiLb/OfHT2ua4MqDNs/FnBt
Sa10C1+XyE+mQXWHI226kp9Y0cDv7xbwmnp4cHznEgtW/DCc5hdErP9N/lHR2zr8
+8CPGUjHa4DLBVc7xlMjm2FY2AKJ8SxrTBQCIIQYYS2ALAKCn5KF260PBXnYijPV
bgWiHzsMDzD7A+zLus87J5Ip1RgvICSfO31UtNDYtZDegOsQ+Hw8so5tnLzFTqKO
g6Eg/FfMqqtwGAg4eeH2wgWqirHpjx1z/sNTZDtlWv+S9mNFG4YdzGS7cMofzw36
dmktGDgxmEENkdsr4IFP607XL+txWqIGGwhruAphrGUA7ib3NAzy2rA6zpr41zGy
1kw0hCV1ijB+gCvq5Li9nWgK85d0HmLnRSaiZFTyaERxb+8XY9CD8tt+lw+5jgH+
Vs9QaJNEgndP3Gcn8eugT2SBhLjUwDgcjUECE2oipGIQvV2vA1LIRB6ptFgGvjpS
xsCiI9k9k9i2MhpWBRjbnETzsjIf0LeBmXY/v2YaWas3AXCWV8TUJeLTDLMT0mSy
p1dN9MYhGy0=
-----END ENCRYPTED PRIVATE KEY-----
Certificate:
    Data:
        Version: 3 (0x2)
        Serial Number: 4096 (0x1000)
        Signature Algorithm: sha256WithRSAEncryption
        Issuer: C=BD, ST=Horipriya Das Arpita, L=Sylhet, O=Example Ltd, OU=section, CN=Arpita/emailAddress=horipriya288@gmail.com
        Validity
            Not Before: Jul  7 15:28:30 2024 GMT
            Not After : Jul  7 15:28:30 2025 GMT
        Subject: C=BD, ST=Horipriya Das Arpita, O=Example Ltd, OU=section, CN=Arpita/emailAddress=horipriya288@gmail.com
        Subject Public Key Info:
            Public Key Algorithm: rsaEncryption
                Public-Key: (1024 bit)
                Modulus:
                    00:ac:a3:d3:4b:b3:29:e3:d4:59:38:3b:2b:43:76:
                    e8:44:33:a1:d8:d9:0a:52:81:06:3d:b2:48:5c:f5:
                    8a:bd:e2:78:78:a1:21:fa:0f:45:5e:d8:56:9c:7c:
                    33:f0:03:f6:a2:0e:bc:15:a4:ee:a1:35:ce:7d:c3:
                    67:3a:c1:fe:a9:c4:5c:39:38:39:b5:34:18:c5:1e:
                    42:20:e5:d0:f0:4d:3e:61:d5:50:b9:9d:11:d4:75:
                    d4:0a:95:06:66:9d:92:47:12:5b:48:c6:48:4d:b3:
                    48:b8:ce:c6:c4:4a:7d:4f:5f:19:4f:03:06:57:70:
                    7f:5b:01:1b:b1:25:0f:3a:91
                Exponent: 65537 (0x10001)
        X509v3 extensions:
            X509v3 Basic Constraints: 
                CA:FALSE
            X509v3 Subject Key Identifier: 
                63:C3:4A:52:E6:9F:30:8F:1B:9B:22:6C:1C:7A:F8:AC:7C:D7:C0:80
            X509v3 Authority Key Identifier: 
                91:90:CD:CC:C6:CE:B1:97:69:C6:48:FB:FC:FA:A7:E6:91:13:3E:02
    Signature Algorithm: sha256WithRSAEncryption
    Signature Value:
        39:9e:c6:80:ea:be:fd:68:04:c1:36:38:e7:7c:93:7c:6d:b0:
        f4:1b:4f:5a:a2:99:c0:7d:a1:4a:14:9c:9f:98:24:89:ff:4a:
        64:5b:82:7d:bc:9e:61:40:ea:e1:a8:4e:f6:0b:23:33:1e:8a:
        59:ca:12:5d:10:0d:d9:86:77:8a:5f:51:52:a5:a2:0f:b6:7a:
        55:25:30:97:2d:a3:cb:0a:b3:e9:bf:f4:72:f6:14:90:7b:62:
        64:a6:19:c1:a3:4a:5a:07:cb:90:d2:2f:89:75:9b:6f:13:d1:
        ee:99:6a:d0:d1:6c:51:74:c5:77:f2:fd:0a:d1:bb:c9:2d:09:
        3b:5b:a6:d4:05:fb:5f:8f:c6:57:9b:83:65:22:d3:3a:7c:0a:
        b3:58:e5:30:75:5a:9a:95:40:21:e8:47:e3:6b:93:d1:77:4c:
        df:88:d7:52:50:93:1e:ef:c0:39:89:7b:bd:27:48:5b:fd:35:
        c8:3a:3a:7b:b6:a6:e8:15:b9:02:1c:3d:ec:8e:51:44:f3:cb:
        7a:94:de:a6:a9:f5:65:57:ab:c1:3c:b3:81:e8:6a:fb:4c:5a:
        ea:58:15:88:00:76:53:47:1d:fc:71:c2:ad:9e:96:14:dc:85:
        db:b0:ea:0c:a4:9b:b3:39:92:50:21:f4:f1:a5:86:9f:b1:6d:
        3d:b7:1c:7d
-----BEGIN CERTIFICATE-----
MIIDcDCCAligAwIBAgICEAAwDQYJKoZIhvcNAQELBQAwgZ0xCzAJBgNVBAYTAkJE
MR0wGwYDVQQIDBRIb3JpcHJpeWEgRGFzIEFycGl0YTEPMA0GA1UEBwwGU3lsaGV0
MRQwEgYDVQQKDAtFeGFtcGxlIEx0ZDEQMA4GA1UECwwHc2VjdGlvbjEPMA0GA1UE
AwwGQXJwaXRhMSUwIwYJKoZIhvcNAQkBFhZob3JpcHJpeWEyODhAZ21haWwuY29t
MB4XDTI0MDcwNzE1MjgzMFoXDTI1MDcwNzE1MjgzMFowgYwxCzAJBgNVBAYTAkJE
MR0wGwYDVQQIDBRIb3JpcHJpeWEgRGFzIEFycGl0YTEUMBIGA1UECgwLRXhhbXBs
ZSBMdGQxEDAOBgNVBAsMB3NlY3Rpb24xDzANBgNVBAMMBkFycGl0YTElMCMGCSqG
SIb3DQEJARYWaG9yaXByaXlhMjg4QGdtYWlsLmNvbTCBnzANBgkqhkiG9w0BAQEF
AAOBjQAwgYkCgYEArKPTS7Mp49RZODsrQ3boRDOh2NkKUoEGPbJIXPWKveJ4eKEh
+g9FXthWnHwz8AP2og68FaTuoTXOfcNnOsH+qcRcOTg5tTQYxR5CIOXQ8E0+YdVQ
uZ0R1HXUCpUGZp2SRxJbSMZITbNIuM7GxEp9T18ZTwMGV3B/WwEbsSUPOpECAwEA
AaNNMEswCQYDVR0TBAIwADAdBgNVHQ4EFgQUY8NKUuafMI8bmyJsHHr4rHzXwIAw
HwYDVR0jBBgwFoAUkZDNzMbOsZdpxkj7/Pqn5pETPgIwDQYJKoZIhvcNAQELBQAD
ggEBADmexoDqvv1oBME2OOd8k3xtsPQbT1qimcB9oUoUnJ+YJIn/SmRbgn28nmFA
6uGoTvYLIzMeilnKEl0QDdmGd4pfUVKlog+2elUlMJcto8sKs+m/9HL2FJB7YmSm
GcGjSloHy5DSL4l1m28T0e6ZatDRbFF0xXfy/QrRu8ktCTtbptQF+1+Pxlebg2Ui
0zp8CrNY5TB1WpqVQCHoR+Nrk9F3TN+I11JQkx7vwDmJe70nSFv9Ncg6Onu2pugV
uQIcPeyOUUTzy3qU3qap9WVXq8E8s4HoavtMWupYFYgAdlNHHfxxwq2elhTchduw
6gykm7M5klAh9PGlhp+xbT23HH0=
-----END CERTIFICATE-----
