-----BEGIN PRIVATE KEY-----
MIIEvgIBADANBgkqhkiG9w0BAQEFAASCBKgwggSkAgEAAoIBAQCxx6jiQYPLLgJn
RzQeRPHVvSipFVTlSaQ9FTPmWg+C1vK1J0Y4xdmIztSyExvj5XJ2e910DJC+YHp1
VnRfsV5rNSfy1TR0vwR7iv+xvTUU7EyRkQyFtV9w4F/nTa5uEd3A+ctROAY690/L
uk0czYjdveNKmVJNIbpyUeShOsKe4/NSp9KyQo/00bndfHMKXcLfIRxUwfdqXgob
D1ZT8xq3J46I6ykqzi1aZuLqwHrj6HjKLL+ao+PNTwWo7c0UXeLB8BMoyQc+VUYg
xiF4BM/yekuL/OPb1aj3Q0N06q3knfOcc5ctMHPW5Pk7oo5AUOxSx5p4xOiCe6Ts
KUDxpUEPAgMBAAECggEALgELq9jmQOqcBpu/WeHfbr7vSanSeS7wSDo3XvGJOANl
dQk/u6s/Go7jLV2Shwu17gEpkkE6J3mR1tFTdfvRAg8UUltnoppXj5ythBIBLXPk
cHrHccY4d14okxNgAu2uo6RAP7kuq42Z4Y9JKx3ov/DGY2R/jqQeujyE3E/3UuQc
4EPL3xHrqVU90TwiYvB6DTiXJAa9wDvVwMW3KTDT1ScFOI8etLCNG+z4HfbiqOBP
zV0BDmAmtJ300NJR7CIabeLaMqaONV5iv7e9UspxfDqJ9vfJcvmn5/mTSWXFxMlP
9CF1cYpvi3UcmACSV6bwHvXUHY1DQDWULVl6b2GY+QKBgQDtysL5ks9PEYCCGeX9
asENoSIFR7C7NajG9nRTewfnq1LtjQ+XZOonOuh+wu5INMI2QY35rVz1+dfAUv3Q
YTWIqMNR3htxbQ1ql9LCBZXSgxQgvoJRckmR+OGno+CE2SLWqP1nq+gWABAHrG4I
UcetQjWOxpoJ7SBFNH+nNpZ0gwKBgQC/ZIff4zVSYScN+SV2WNFMxcxszDhR8YKl
7p4un/rOuT8uMOHQmivKKFadWjV8KACWSXMYqHhKB/zAXXum7AGA4M4TlVPkOSg3
V7PhtfkfTHfms06y6nlX5MXC9XqKs9oUw0GhYih78NDd+qpliLbtjVF3l0bzFzlI
dO6Dc8cThQKBgEc05Yfoz42E1y+eY8GsOx1CuDZOjnyxB9Z0rMbm26ojIpUiHZ4f
SQLwX/i9lK8opVOr88DliiXaaCIeeATzZx2CM+MLGLqxhkf6KNGS7Jd6Swe3JL0Q
9TjyB1i0+SGvCACx4BgwYTJdWG+D0ftJyfp3DiSwEiaQzI4Mt4EyFoHTAoGBAJIb
/fp2Kqu0DSuGqwm47jdMvS3Fja1I0PM5wbpYWRDdrJTnrkwglhNjThQb3L7mjuQs
OFh3rDTf+h0kgJRCkTdA5zFeC0gsNj5hjqpd0EwLhXEyK388rtvhgvO9kQo4GOFG
2mCIXd2YTutXRCP1Bak9/BZu/zPu48Ujtz3U8gI9AoGBALRcLmx+D1gxAcTz/Vg5
0eFJAxOu/bmHhxJDWanPsL3CcYeABXAUgf3YHRl1c7/8rPHDsA29DGzVZhjp4lQF
EqwE7OU3z+8kBMZe3aYUf7IU9dcP2bQ7Ahiv7/Ixqcs7DCvncaJH2+kYXCVrnc7c
zpRWdHpnOv3eIYRK0ItsL0NH
-----END PRIVATE KEY-----
Certificate:
    Data:
        Version: 3 (0x2)
        Serial Number: 4097 (0x1001)
        Signature Algorithm: sha256WithRSAEncryption
        Issuer: C=BD, ST=Horipriya Das Arpita, L=Sylhet, O=Example Ltd, OU=section, CN=Arpita/emailAddress=horipriya288@gmail.com
        Validity
            Not Before: Jul  7 17:10:48 2024 GMT
            Not After : Jul  7 17:10:48 2025 GMT
        Subject: C=BD, ST=Horipriya Das Arpita, O=Example Ltd, OU=section, CN=Aru/emailAddress=horipriya288@gmail.com
        Subject Public Key Info:
            Public Key Algorithm: rsaEncryption
                Public-Key: (2048 bit)
                Modulus:
                    00:b1:c7:a8:e2:41:83:cb:2e:02:67:47:34:1e:44:
                    f1:d5:bd:28:a9:15:54:e5:49:a4:3d:15:33:e6:5a:
                    0f:82:d6:f2:b5:27:46:38:c5:d9:88:ce:d4:b2:13:
                    1b:e3:e5:72:76:7b:dd:74:0c:90:be:60:7a:75:56:
                    74:5f:b1:5e:6b:35:27:f2:d5:34:74:bf:04:7b:8a:
                    ff:b1:bd:35:14:ec:4c:91:91:0c:85:b5:5f:70:e0:
                    5f:e7:4d:ae:6e:11:dd:c0:f9:cb:51:38:06:3a:f7:
                    4f:cb:ba:4d:1c:cd:88:dd:bd:e3:4a:99:52:4d:21:
                    ba:72:51:e4:a1:3a:c2:9e:e3:f3:52:a7:d2:b2:42:
                    8f:f4:d1:b9:dd:7c:73:0a:5d:c2:df:21:1c:54:c1:
                    f7:6a:5e:0a:1b:0f:56:53:f3:1a:b7:27:8e:88:eb:
                    29:2a:ce:2d:5a:66:e2:ea:c0:7a:e3:e8:78:ca:2c:
                    bf:9a:a3:e3:cd:4f:05:a8:ed:cd:14:5d:e2:c1:f0:
                    13:28:c9:07:3e:55:46:20:c6:21:78:04:cf:f2:7a:
                    4b:8b:fc:e3:db:d5:a8:f7:43:43:74:ea:ad:e4:9d:
                    f3:9c:73:97:2d:30:73:d6:e4:f9:3b:a2:8e:40:50:
                    ec:52:c7:9a:78:c4:e8:82:7b:a4:ec:29:40:f1:a5:
                    41:0f
                Exponent: 65537 (0x10001)
        X509v3 extensions:
            X509v3 Basic Constraints: 
                CA:FALSE
            X509v3 Subject Key Identifier: 
                7F:68:F4:75:92:B5:FD:7F:66:63:57:54:DE:39:B9:D3:B8:03:7E:4C
            X509v3 Authority Key Identifier: 
                91:90:CD:CC:C6:CE:B1:97:69:C6:48:FB:FC:FA:A7:E6:91:13:3E:02
    Signature Algorithm: sha256WithRSAEncryption
    Signature Value:
        1b:55:b0:02:2d:e8:00:44:70:f7:40:04:20:c4:af:7c:f0:c6:
        17:26:26:39:44:84:06:54:57:9c:e7:71:4a:00:ae:31:f3:a9:
        09:8c:45:35:4e:e7:a5:f9:2a:2c:57:8a:87:97:4e:84:08:a1:
        38:81:15:db:7b:f7:82:75:46:c6:7d:bc:aa:7d:bf:e9:9d:41:
        6e:f8:87:05:50:dc:a8:66:0e:7b:c3:4a:78:b1:5b:a2:3a:13:
        56:2e:46:a9:b1:7a:52:2d:75:dc:a1:03:44:d4:9d:62:d4:1d:
        91:05:37:c1:c1:5f:18:6a:20:13:34:0d:14:e1:f3:3b:e1:30:
        32:ed:bb:b1:30:61:5c:0a:39:d4:e3:f2:cd:3e:62:dc:fc:31:
        d6:ef:a9:ef:5a:32:a5:14:23:5a:d8:40:e1:4c:cd:e7:a0:60:
        b5:a4:bc:0f:3f:5e:ba:88:07:4e:18:19:eb:6b:85:84:89:f4:
        35:10:e0:77:f1:bb:2b:31:1e:2c:7a:03:45:6d:17:14:9c:29:
        df:8c:f3:ce:b2:25:6e:29:80:98:7b:bb:94:df:5e:69:ba:d3:
        33:78:35:24:4b:8c:44:ea:b0:b3:06:c9:be:b1:b7:3f:93:2e:
        b3:8f:c4:20:cd:c4:10:de:12:5a:2d:41:f8:7d:5d:c2:ce:a9:
        57:71:bb:8f
-----BEGIN CERTIFICATE-----
MIID8TCCAtmgAwIBAgICEAEwDQYJKoZIhvcNAQELBQAwgZ0xCzAJBgNVBAYTAkJE
MR0wGwYDVQQIDBRIb3JpcHJpeWEgRGFzIEFycGl0YTEPMA0GA1UEBwwGU3lsaGV0
MRQwEgYDVQQKDAtFeGFtcGxlIEx0ZDEQMA4GA1UECwwHc2VjdGlvbjEPMA0GA1UE
AwwGQXJwaXRhMSUwIwYJKoZIhvcNAQkBFhZob3JpcHJpeWEyODhAZ21haWwuY29t
MB4XDTI0MDcwNzE3MTA0OFoXDTI1MDcwNzE3MTA0OFowgYkxCzAJBgNVBAYTAkJE
MR0wGwYDVQQIDBRIb3JpcHJpeWEgRGFzIEFycGl0YTEUMBIGA1UECgwLRXhhbXBs
ZSBMdGQxEDAOBgNVBAsMB3NlY3Rpb24xDDAKBgNVBAMMA0FydTElMCMGCSqGSIb3
DQEJARYWaG9yaXByaXlhMjg4QGdtYWlsLmNvbTCCASIwDQYJKoZIhvcNAQEBBQAD
ggEPADCCAQoCggEBALHHqOJBg8suAmdHNB5E8dW9KKkVVOVJpD0VM+ZaD4LW8rUn
RjjF2YjO1LITG+PlcnZ73XQMkL5genVWdF+xXms1J/LVNHS/BHuK/7G9NRTsTJGR
DIW1X3DgX+dNrm4R3cD5y1E4Bjr3T8u6TRzNiN2940qZUk0hunJR5KE6wp7j81Kn
0rJCj/TRud18cwpdwt8hHFTB92peChsPVlPzGrcnjojrKSrOLVpm4urAeuPoeMos
v5qj481PBajtzRRd4sHwEyjJBz5VRiDGIXgEz/J6S4v849vVqPdDQ3TqreSd85xz
ly0wc9bk+TuijkBQ7FLHmnjE6IJ7pOwpQPGlQQ8CAwEAAaNNMEswCQYDVR0TBAIw
ADAdBgNVHQ4EFgQUf2j0dZK1/X9mY1dU3jm507gDfkwwHwYDVR0jBBgwFoAUkZDN
zMbOsZdpxkj7/Pqn5pETPgIwDQYJKoZIhvcNAQELBQADggEBABtVsAIt6ABEcPdA
BCDEr3zwxhcmJjlEhAZUV5zncUoArjHzqQmMRTVO56X5KixXioeXToQIoTiBFdt7
94J1RsZ9vKp9v+mdQW74hwVQ3KhmDnvDSnixW6I6E1YuRqmxelItddyhA0TUnWLU
HZEFN8HBXxhqIBM0DRTh8zvhMDLtu7EwYVwKOdTj8s0+Ytz8Mdbvqe9aMqUUI1rY
QOFMzeegYLWkvA8/XrqIB04YGetrhYSJ9DUQ4HfxuysxHix6A0VtFxScKd+M886y
JW4pgJh7u5TfXmm60zN4NSRLjETqsLMGyb6xtz+TLrOPxCDNxBDeElotQfh9XcLO
qVdxu48=
-----END CERTIFICATE-----
